target datalayout = "e-m:e-p270:32:32-p271:32:32-p272:64:64-i64:64-i128:128-f80:128-n8:16:32:64-S128"
target triple = "x86_64-pc-linux-gnu"

%class.duDisplayList = type <{ %struct.duDebugDraw, ptr, ptr, i32, i32, i32, float, i8, [7 x i8] }>
%struct.duDebugDraw = type { ptr }

; Function Attrs: mustprogress nounwind uwtable
define void @_ZN13duDisplayList5clearEv(ptr noundef nonnull align 8 dereferenceable(41) %0) #0 align 2 {
  %2 = alloca ptr, align 8
  store ptr %0, ptr %2, align 8
  %3 = load ptr, ptr %2, align 8
  %4 = getelementptr inbounds %class.duDisplayList, ptr %3, i32 0, i32 3
  store i32 0, ptr %4, align 8
  ret void
}

; Function Attrs: mustprogress nounwind uwtable
define void @_ZN13duDisplayList5beginE21duDebugDrawPrimitivesf(ptr noundef nonnull align 8 dereferenceable(41) %0, i32 noundef %1, float noundef %2) unnamed_addr #0 align 2 {
  %4 = alloca ptr, align 8
  %5 = alloca i32, align 4
  %6 = alloca float, align 4
  store ptr %0, ptr %4, align 8
  store i32 %1, ptr %5, align 4
  store float %2, ptr %6, align 4
  %7 = load ptr, ptr %4, align 8
  call void @_ZN13duDisplayList5clearEv(ptr noundef nonnull align 8 dereferenceable(41) %7)
  %8 = load i32, ptr %5, align 4
  %9 = getelementptr inbounds %class.duDisplayList, ptr %7, i32 0, i32 5
  store i32 %8, ptr %9, align 8
  %10 = load float, ptr %6, align 4
  %11 = getelementptr inbounds %class.duDisplayList, ptr %7, i32 0, i32 6
  store float %10, ptr %11, align 4
  ret void
}