; Function Attrs: mustprogress nofree norecurse nosync nounwind willreturn memory(argmem: write) uwtable
define void @_ZN13duDisplayList5beginE21duDebugDrawPrimitivesf(ptr nocapture noundef nonnull writeonly align 8 dereferenceable(41) %0, i32 noundef %1, float noundef %2) unnamed_addr #3 align 2 {
  %4 = getelementptr inbounds i8, ptr %0, i64 24
  store i32 0, ptr %4, align 8
  %5 = getelementptr inbounds i8, ptr %0, i64 32
  store i32 %1, ptr %5, align 8
  %6 = getelementptr inbounds i8, ptr %0, i64 36
  store float %2, ptr %6, align 4
  ret void
}